; Function Attrs: mustprogress nounwind uwtable
define void @_ZN5faiss3lsq8LSQTimer5resetEv(ptr nocapture noundef nonnull align 8 dereferenceable(56) %0) local_unnamed_addr #0 align 2 personality ptr @__gxx_personality_v0 {
  %2 = getelementptr inbounds i8, ptr %0, i64 16
  %3 = load ptr, ptr %2, align 8
  %.not5.i.i.i = icmp eq ptr %3, null
  br i1 %.not5.i.i.i, label %_ZNSt13unordered_mapINSt7__cxx1112basic_stringIcSt11char_traitsIcESaIcEEEdSt4hashIS5_ESt8equal_toIS5_ESaISt4pairIKS5_dEEE5clearEv.exit, label %.lr.ph.i.i.i

.lr.ph.i.i.i:                                     ; preds = %1, %.lr.ph.i.i.i
  %.06.i.i.i = phi ptr [ %4, %.lr.ph.i.i.i ], [ %3, %1 ]
  %4 = load ptr, ptr %.06.i.i.i, align 8
  %5 = getelementptr inbounds i8, ptr %.06.i.i.i, i64 8
  tail call void @_ZNSt7__cxx1112basic_stringIcSt11char_traitsIcESaIcEED1Ev(ptr noundef nonnull align 8 dereferenceable(32) %5) #12
  tail call void @_ZdlPv(ptr noundef nonnull %.06.i.i.i) #25
  %.not.i.i.i = icmp eq ptr %4, null
  br i1 %.not.i.i.i, label %_ZNSt13unordered_mapINSt7__cxx1112basic_stringIcSt11char_traitsIcESaIcEEEdSt4hashIS5_ESt8equal_toIS5_ESaISt4pairIKS5_dEEE5clearEv.exit, label %.lr.ph.i.i.i, !llvm.loop !5

_ZNSt13unordered_mapINSt7__cxx1112basic_stringIcSt11char_traitsIcESaIcEEEdSt4hashIS5_ESt8equal_toIS5_ESaISt4pairIKS5_dEEE5clearEv.exit: ; preds = %.lr.ph.i.i.i, %1
  %6 = load ptr, ptr %0, align 8
  %7 = getelementptr inbounds i8, ptr %0, i64 8
  %8 = load i64, ptr %7, align 8
  %9 = shl i64 %8, 3
  tail call void @llvm.memset.p0.i64(ptr align 8 %6, i8 0, i64 %9, i1 false)
  tail call void @llvm.memset.p0.i64(ptr noundef nonnull align 8 dereferenceable(16) %2, i8 0, i64 16, i1 false)
  ret void
}